; Function Attrs: mustprogress null_pointer_is_valid sspstrong uwtable
define void @_ZN21BluetoothDeviceDialog16tableContextMenuERK6QPoint(ptr noundef align 8 dereferenceable_or_null(268) %0, ptr noundef align 4 dereferenceable(8) %1) #0 align 2 {
  %3 = alloca %class.QPoint, align 8
  %4 = getelementptr inbounds nuw i8, ptr %0, i64 224
  call void @llvm.lifetime.start.p0(i64 8, ptr nonnull %3) #24
  %5 = getelementptr inbounds nuw i8, ptr %0, i64 144
  %6 = load ptr, ptr %5, align 8
  %7 = getelementptr inbounds nuw i8, ptr %6, i64 56
  %8 = load ptr, ptr %7, align 8
  %9 = tail call noundef ptr @_ZNK19QAbstractScrollArea8viewportEv(ptr noundef align 8 dereferenceable_or_null(40) %8)
  %10 = tail call i64 @_ZNK7QWidget11mapToGlobalERK6QPoint(ptr noundef align 8 dereferenceable_or_null(40) %9, ptr noundef align 4 dereferenceable(8) %1)
  store i64 %10, ptr %3, align 8
  call void @_ZN5QMenu5popupERK6QPointP7QAction(ptr noundef nonnull align 8 dereferenceable_or_null(40) %4, ptr noundef nonnull align 4 dereferenceable(8) %3, ptr noundef null)
  call void @llvm.lifetime.end.p0(i64 8, ptr nonnull %3) #24
  ret void
}